target datalayout = "e-m:e-p270:32:32-p271:32:32-p272:64:64-i64:64-i128:128-f80:128-n8:16:32:64-S128"
target triple = "x86_64-pc-linux-gnu"

%struct.QMetaObject = type { %"struct.QMetaObject::Data" }
%"struct.QMetaObject::Data" = type { %"struct.QMetaObject::SuperData", ptr, ptr, ptr, ptr, ptr, ptr }
%"struct.QMetaObject::SuperData" = type { ptr }
%class.QString = type { %struct.QArrayDataPointer }
%struct.QArrayDataPointer = type { ptr, ptr, i64 }
%class.ATapDataModel = type { %class.QAbstractListModel, i32, ptr, %class.QString, i8, i8, i8, i8, double, double, i32, %struct._conversation_hash_t }
%class.QAbstractListModel = type { %class.QAbstractItemModel }
%class.QAbstractItemModel = type { %class.QObject }
%class.QObject = type { ptr, %class.QScopedPointer }
%class.QScopedPointer = type { ptr }
%struct._conversation_hash_t = type { ptr, ptr, ptr, i32 }

@_ZN13ATapDataModel16staticMetaObjectE = external global %struct.QMetaObject, align 8

; Function Attrs: mustprogress uwtable
define linkonce_odr noundef ptr @_ZNK11QMetaObject4castEP7QObject(ptr noundef nonnull align 8 dereferenceable(56) %0, ptr noundef %1) #0 comdat align 2 {
  %3 = alloca ptr, align 8
  %4 = alloca ptr, align 8
  store ptr %0, ptr %3, align 8
  store ptr %1, ptr %4, align 8
  %5 = load ptr, ptr %3, align 8
  %6 = load ptr, ptr %4, align 8
  %7 = call noundef ptr @_ZNK11QMetaObject4castEPK7QObject(ptr noundef nonnull align 8 dereferenceable(56) %5, ptr noundef %6)
  ret ptr %7
}

; Function Attrs: mustprogress uwtable
define void @_ZN13ATapDataModel10updateDataEP7_GArray(ptr noundef nonnull align 8 dereferenceable(120) %0, ptr noundef %1) #0 align 2 {
  %3 = alloca ptr, align 8
  %4 = alloca ptr, align 8
  store ptr %0, ptr %3, align 8
  store ptr %1, ptr %4, align 8
  %5 = load ptr, ptr %3, align 8
  %6 = getelementptr inbounds %class.ATapDataModel, ptr %5, i32 0, i32 7
  %7 = load i8, ptr %6, align 1
  %8 = trunc i8 %7 to i1
  br i1 %8, label %9, label %10

9:                                                ; preds = %2
  br label %17

10:                                               ; preds = %2
  call void @_ZN18QAbstractItemModel15beginResetModelEv(ptr noundef nonnull align 8 dereferenceable(16) %5)
  %11 = load ptr, ptr %4, align 8
  %12 = getelementptr inbounds %class.ATapDataModel, ptr %5, i32 0, i32 2
  store ptr %11, ptr %12, align 8
  call void @_ZN18QAbstractItemModel13endResetModelEv(ptr noundef nonnull align 8 dereferenceable(16) %5)
  %13 = getelementptr inbounds %class.ATapDataModel, ptr %5, i32 0, i32 1
  %14 = load i32, ptr %13, align 8
  %15 = icmp eq i32 %14, 1
  br i1 %15, label %16, label %17

16:                                               ; preds = %10
  call void @_ZN21ConversationDataModel12doDataUpdateEv(ptr noundef nonnull align 8 dereferenceable(120) %5)
  br label %17

17:                                               ; preds = %16, %10, %9
  ret void
}

; Function Attrs: mustprogress uwtable
define linkonce_odr noundef ptr @_Z12qobject_castIP13ATapDataModelET_P7QObject(ptr noundef %0) #0 comdat {
  %2 = alloca ptr, align 8
  store ptr %0, ptr %2, align 8
  %3 = load ptr, ptr %2, align 8
  %4 = call noundef ptr @_ZNK11QMetaObject4castEP7QObject(ptr noundef nonnull align 8 dereferenceable(56) @_ZN13ATapDataModel16staticMetaObjectE, ptr noundef %3)
  ret ptr %4
}

; Function Attrs: mustprogress uwtable
define void @_ZN13ATapDataModel7tapDrawEPv(ptr noundef %0) #0 align 2 {
  %2 = alloca ptr, align 8
  %3 = alloca ptr, align 8
  %4 = alloca ptr, align 8
  store ptr %0, ptr %2, align 8
  %5 = load ptr, ptr %2, align 8
  %6 = icmp ne ptr %5, null
  br i1 %6, label %8, label %7

7:                                                ; preds = %1
  br label %18

8:                                                ; preds = %1
  %9 = load ptr, ptr %2, align 8
  store ptr %9, ptr %3, align 8
  %10 = load ptr, ptr %3, align 8
  %11 = getelementptr inbounds %struct._conversation_hash_t, ptr %10, i32 0, i32 2
  %12 = load ptr, ptr %11, align 8
  %13 = call noundef ptr @_Z12qobject_castIP13ATapDataModelET_P7QObject(ptr noundef %12)
  store ptr %13, ptr %4, align 8
  %14 = load ptr, ptr %4, align 8
  %15 = load ptr, ptr %3, align 8
  %16 = getelementptr inbounds %struct._conversation_hash_t, ptr %15, i32 0, i32 1
  %17 = load ptr, ptr %16, align 8
  call void @_ZN13ATapDataModel10updateDataEP7_GArray(ptr noundef nonnull align 8 dereferenceable(120) %14, ptr noundef %17)
  br label %18

18:                                               ; preds = %8, %7
  ret void
}