; Function Attrs: mustprogress uwtable
define void @_ZN13ATapDataModel7tapDrawEPv(ptr noundef readonly %0) #0 align 2 {
  %.not = icmp eq ptr %0, null
  br i1 %.not, label %_ZN13ATapDataModel10updateDataEP7_GArray.exit, label %2

2:                                                ; preds = %1
  %3 = getelementptr inbounds i8, ptr %0, i64 16
  %4 = load ptr, ptr %3, align 8
  %5 = tail call noundef ptr @_ZNK11QMetaObject4castEPK7QObject(ptr noundef nonnull align 8 dereferenceable(56) @_ZN13ATapDataModel16staticMetaObjectE, ptr noundef %4)
  %6 = getelementptr inbounds i8, ptr %5, i64 59
  %7 = load i8, ptr %6, align 1
  %8 = and i8 %7, 1
  %.not.i = icmp eq i8 %8, 0
  br i1 %.not.i, label %9, label %_ZN13ATapDataModel10updateDataEP7_GArray.exit

9:                                                ; preds = %2
  %10 = getelementptr inbounds i8, ptr %0, i64 8
  %11 = load ptr, ptr %10, align 8
  tail call void @_ZN18QAbstractItemModel15beginResetModelEv(ptr noundef nonnull align 8 dereferenceable(16) %5)
  %12 = getelementptr inbounds i8, ptr %5, i64 24
  store ptr %11, ptr %12, align 8
  tail call void @_ZN18QAbstractItemModel13endResetModelEv(ptr noundef nonnull align 8 dereferenceable(16) %5)
  %13 = getelementptr inbounds i8, ptr %5, i64 16
  %14 = load i32, ptr %13, align 8
  %15 = icmp eq i32 %14, 1
  br i1 %15, label %16, label %_ZN13ATapDataModel10updateDataEP7_GArray.exit

16:                                               ; preds = %9
  tail call void @_ZN21ConversationDataModel12doDataUpdateEv(ptr noundef nonnull align 8 dereferenceable(120) %5)
  br label %_ZN13ATapDataModel10updateDataEP7_GArray.exit

_ZN13ATapDataModel10updateDataEP7_GArray.exit:    ; preds = %16, %9, %2, %1
  ret void
}